target datalayout = "e-m:e-p270:32:32-p271:32:32-p272:64:64-i64:64-i128:128-f80:128-n8:16:32:64-S128"
target triple = "x86_64-pc-linux-gnu"

%struct.pack_info = type { ptr, i32, i32 }

; Function Attrs: nounwind uwtable
define internal i32 @compare_info(ptr noundef %0, ptr noundef %1) #0 {
  %3 = alloca i32, align 4
  %4 = alloca ptr, align 8
  %5 = alloca ptr, align 8
  %6 = alloca ptr, align 8
  %7 = alloca ptr, align 8
  %8 = alloca i32, align 4
  store ptr %0, ptr %4, align 8, !tbaa !13
  store ptr %1, ptr %5, align 8, !tbaa !13
  call void @llvm.lifetime.start.p0(i64 8, ptr %6) #9
  %9 = load ptr, ptr %4, align 8, !tbaa !13
  store ptr %9, ptr %6, align 8, !tbaa !41
  call void @llvm.lifetime.start.p0(i64 8, ptr %7) #9
  %10 = load ptr, ptr %5, align 8, !tbaa !13
  store ptr %10, ptr %7, align 8, !tbaa !41
  %11 = load ptr, ptr %6, align 8, !tbaa !41
  %12 = load ptr, ptr %11, align 8, !tbaa !43
  %13 = getelementptr inbounds nuw %struct.pack_info, ptr %12, i32 0, i32 1
  %14 = load i32, ptr %13, align 8, !tbaa !47
  %15 = icmp sle i32 0, %14
  br i1 %15, label %16, label %32

16:                                               ; preds = %2
  %17 = load ptr, ptr %7, align 8, !tbaa !41
  %18 = load ptr, ptr %17, align 8, !tbaa !43
  %19 = getelementptr inbounds nuw %struct.pack_info, ptr %18, i32 0, i32 1
  %20 = load i32, ptr %19, align 8, !tbaa !47
  %21 = icmp sle i32 0, %20
  br i1 %21, label %22, label %32

22:                                               ; preds = %16
  %23 = load ptr, ptr %6, align 8, !tbaa !41
  %24 = load ptr, ptr %23, align 8, !tbaa !43
  %25 = getelementptr inbounds nuw %struct.pack_info, ptr %24, i32 0, i32 1
  %26 = load i32, ptr %25, align 8, !tbaa !47
  %27 = load ptr, ptr %7, align 8, !tbaa !41
  %28 = load ptr, ptr %27, align 8, !tbaa !43
  %29 = getelementptr inbounds nuw %struct.pack_info, ptr %28, i32 0, i32 1
  %30 = load i32, ptr %29, align 8, !tbaa !47
  %31 = sub nsw i32 %26, %30
  store i32 %31, ptr %3, align 4
  store i32 1, ptr %8, align 4
  br label %71

32:                                               ; preds = %16, %2
  %33 = load ptr, ptr %6, align 8, !tbaa !41
  %34 = load ptr, ptr %33, align 8, !tbaa !43
  %35 = getelementptr inbounds nuw %struct.pack_info, ptr %34, i32 0, i32 1
  %36 = load i32, ptr %35, align 8, !tbaa !47
  %37 = icmp sle i32 0, %36
  br i1 %37, label %38, label %39

38:                                               ; preds = %32
  store i32 -1, ptr %3, align 4
  store i32 1, ptr %8, align 4
  br label %71

39:                                               ; preds = %32
  %40 = load ptr, ptr %7, align 8, !tbaa !41
  %41 = load ptr, ptr %40, align 8, !tbaa !43
  %42 = getelementptr inbounds nuw %struct.pack_info, ptr %41, i32 0, i32 1
  %43 = load i32, ptr %42, align 8, !tbaa !47
  %44 = icmp sle i32 0, %43
  br i1 %44, label %45, label %46

45:                                               ; preds = %39
  store i32 1, ptr %3, align 4
  store i32 1, ptr %8, align 4
  br label %71

46:                                               ; preds = %39
  br label %47

47:                                               ; preds = %46
  br label %48

48:                                               ; preds = %47
  %49 = load ptr, ptr %6, align 8, !tbaa !41
  %50 = load ptr, ptr %49, align 8, !tbaa !43
  %51 = getelementptr inbounds nuw %struct.pack_info, ptr %50, i32 0, i32 0
  %52 = load ptr, ptr %51, align 8, !tbaa !45
  %53 = load ptr, ptr %7, align 8, !tbaa !41
  %54 = load ptr, ptr %53, align 8, !tbaa !43
  %55 = getelementptr inbounds nuw %struct.pack_info, ptr %54, i32 0, i32 0
  %56 = load ptr, ptr %55, align 8, !tbaa !45
  %57 = icmp eq ptr %52, %56
  br i1 %57, label %58, label %59

58:                                               ; preds = %48
  store i32 0, ptr %3, align 4
  store i32 1, ptr %8, align 4
  br label %71

59:                                               ; preds = %48
  %60 = load ptr, ptr %6, align 8, !tbaa !41
  %61 = load ptr, ptr %60, align 8, !tbaa !43
  %62 = getelementptr inbounds nuw %struct.pack_info, ptr %61, i32 0, i32 0
  %63 = load ptr, ptr %62, align 8, !tbaa !45
  %64 = load ptr, ptr %7, align 8, !tbaa !41
  %65 = load ptr, ptr %64, align 8, !tbaa !43
  %66 = getelementptr inbounds nuw %struct.pack_info, ptr %65, i32 0, i32 0
  %67 = load ptr, ptr %66, align 8, !tbaa !45
  %68 = icmp ult ptr %63, %67
  br i1 %68, label %69, label %70

69:                                               ; preds = %59
  store i32 -1, ptr %3, align 4
  store i32 1, ptr %8, align 4
  br label %71

70:                                               ; preds = %59
  store i32 1, ptr %3, align 4
  store i32 1, ptr %8, align 4
  br label %71

71:                                               ; preds = %70, %69, %58, %45, %38, %22
  call void @llvm.lifetime.end.p0(i64 8, ptr %7) #9
  call void @llvm.lifetime.end.p0(i64 8, ptr %6) #9
  %72 = load i32, ptr %3, align 4
  ret i32 %72
}