; Function Attrs: mustprogress nofree norecurse nosync nounwind willreturn memory(read, inaccessiblemem: none) uwtable
define internal range(i32 -2147483647, -2147483648) i32 @compare_info(ptr noundef readonly captures(none) %0, ptr noundef readonly captures(none) %1) #6 {
  %3 = load ptr, ptr %0, align 8, !tbaa !11
  %4 = getelementptr inbounds nuw i8, ptr %3, i64 8
  %5 = load i32, ptr %4, align 8, !tbaa !16
  %6 = icmp sgt i32 %5, -1
  %7 = load ptr, ptr %1, align 8, !tbaa !11
  %8 = getelementptr inbounds nuw i8, ptr %7, i64 8
  %9 = load i32, ptr %8, align 8, !tbaa !16
  %10 = icmp sgt i32 %9, -1
  br i1 %6, label %11, label %13

11:                                               ; preds = %2
  %12 = sub nsw i32 %5, %9
  %spec.select = select i1 %10, i32 %12, i32 -1
  br label %.thread

13:                                               ; preds = %2
  br i1 %10, label %.thread, label %14

14:                                               ; preds = %13
  %15 = load ptr, ptr %3, align 8, !tbaa !13
  %16 = load ptr, ptr %7, align 8, !tbaa !13
  %17 = icmp eq ptr %15, %16
  br i1 %17, label %.thread, label %18

18:                                               ; preds = %14
  %19 = icmp ult ptr %15, %16
  %. = select i1 %19, i32 -1, i32 1
  br label %.thread

.thread:                                          ; preds = %11, %18, %14, %13
  %.0 = phi i32 [ 1, %13 ], [ 0, %14 ], [ %., %18 ], [ %spec.select, %11 ]
  ret i32 %.0
}